; Function Attrs: nounwind sspstrong uwtable
define hidden void @rb_iseq_reset_jit_func(ptr noundef %0) local_unnamed_addr #0 {
  %2 = ptrtoint ptr %0 to i64
  %3 = icmp eq ptr %0, null
  %4 = and i64 %2, 7
  %5 = icmp ne i64 %4, 0
  %6 = or i1 %3, %5
  br i1 %6, label %imemo_type_p.exit.thread, label %imemo_type_p.exit, !prof !113

imemo_type_p.exit:                                ; preds = %1
  %7 = load i64, ptr %0, align 8, !tbaa !11
  %8 = and i64 %7, 61471
  %.not = icmp eq i64 %8, 28698
  br i1 %.not, label %9, label %imemo_type_p.exit.thread, !prof !114

imemo_type_p.exit.thread:                         ; preds = %1, %imemo_type_p.exit
  tail call void @rb_assert_failure(ptr noundef nonnull @.str.12, i32 noundef 431, ptr noundef nonnull @__func__.rb_iseq_reset_jit_func, ptr noundef nonnull @.str.16) #24
  unreachable

9:                                                ; preds = %imemo_type_p.exit
  %10 = getelementptr inbounds nuw i8, ptr %0, i64 16
  %11 = load ptr, ptr %10, align 8, !tbaa !94
  %12 = getelementptr inbounds nuw i8, ptr %11, i64 296
  tail call void @llvm.memset.p0.i64(ptr noundef nonnull align 8 dereferenceable(32) %12, i8 0, i64 32, i1 false)
  ret void
}